; Function Attrs: mustprogress nounwind uwtable
define internal fastcc void @_ZN12_GLOBAL__N_128CloneTypeIIStmtDataCollectorIN4llvm3MD5EE21VisitIndirectGotoStmtIvEEvPKN5clang16IndirectGotoStmtE(ptr noundef nonnull readonly align 8 captures(none) dereferenceable(16) %0, ptr noundef nonnull %1) unnamed_addr #1 align 2 {
  %3 = tail call noundef ptr @_ZN5clang16IndirectGotoStmt17getConstantTargetEv(ptr noundef nonnull align 8 dereferenceable(24) %1) #21
  %.not = icmp eq ptr %3, null
  br i1 %.not, label %19, label %4

4:                                                ; preds = %2
  %5 = tail call noundef ptr @_ZN5clang16IndirectGotoStmt17getConstantTargetEv(ptr noundef nonnull align 8 dereferenceable(24) %1) #21
  %6 = getelementptr inbounds nuw i8, ptr %5, i64 40
  %7 = load i64, ptr %6, align 8
  %8 = and i64 %7, 7
  %9 = icmp ne i64 %8, 0
  %10 = and i64 %7, -8
  %.not2.i = icmp eq i64 %10, 0
  %.not.i = or i1 %9, %.not2.i
  br i1 %.not.i, label %_ZNK5clang9NamedDecl7getNameEv.exit, label %11

11:                                               ; preds = %4
  %12 = inttoptr i64 %10 to ptr
  %13 = getelementptr inbounds nuw i8, ptr %12, i64 16
  %14 = load ptr, ptr %13, align 8
  %15 = getelementptr inbounds nuw i8, ptr %14, i64 16
  %16 = load i64, ptr %14, align 8
  %17 = and i64 %16, 4294967295
  br label %_ZNK5clang9NamedDecl7getNameEv.exit

_ZNK5clang9NamedDecl7getNameEv.exit:              ; preds = %4, %11
  %.sroa.3.0.i = phi i64 [ %17, %11 ], [ 0, %4 ]
  %.sroa.0.0.i = phi ptr [ %15, %11 ], [ @.str, %4 ]
  %18 = getelementptr inbounds nuw i8, ptr %0, i64 8
  %.val = load ptr, ptr %18, align 8
  tail call void @_ZN4llvm3MD56updateENS_9StringRefE(ptr noundef nonnull align 4 dereferenceable(152) %.val, ptr nonnull %.sroa.0.0.i, i64 %.sroa.3.0.i) #21
  br label %19

19:                                               ; preds = %_ZNK5clang9NamedDecl7getNameEv.exit, %2
  tail call fastcc void @_ZN12_GLOBAL__N_128CloneTypeIIStmtDataCollectorIN4llvm3MD5EE9VisitStmtIvEEvPKN5clang4StmtE(ptr noundef nonnull readonly align 8 dereferenceable(16) %0, ptr noundef nonnull %1)
  ret void
}